target datalayout = "e-m:e-p270:32:32-p271:32:32-p272:64:64-i64:64-i128:128-f80:128-n8:16:32:64-S128"
target triple = "x86_64-pc-linux-gnu"

%struct.lean_object = type { i32, i32 }

@l_Lean_Elab_Tactic_BVDecide_Frontend_SatAtBVLogical_of___lambda__4___closed__1 = internal global ptr null, align 8
@l_Lean_Elab_Tactic_BVDecide_Frontend_SatAtBVLogical_of___lambda__5___closed__1 = internal global ptr null, align 8

; Function Attrs: alwaysinline nounwind uwtable
define internal void @lean_dec_ref(ptr noundef %0) #0 {
  %2 = alloca ptr, align 8
  store ptr %0, ptr %2, align 8, !tbaa !4
  %3 = load ptr, ptr %2, align 8, !tbaa !4
  %4 = getelementptr inbounds nuw %struct.lean_object, ptr %3, i32 0, i32 0
  %5 = load i32, ptr %4, align 4, !tbaa !11
  %6 = icmp sgt i32 %5, 1
  %7 = zext i1 %6 to i32
  %8 = sext i32 %7 to i64
  %9 = call i64 @llvm.expect.i64(i64 %8, i64 1)
  %10 = icmp ne i64 %9, 0
  br i1 %10, label %11, label %16

11:                                               ; preds = %1
  %12 = load ptr, ptr %2, align 8, !tbaa !4
  %13 = getelementptr inbounds nuw %struct.lean_object, ptr %12, i32 0, i32 0
  %14 = load i32, ptr %13, align 4, !tbaa !11
  %15 = add i32 %14, -1
  store i32 %15, ptr %13, align 4, !tbaa !11
  br label %24

16:                                               ; preds = %1
  %17 = load ptr, ptr %2, align 8, !tbaa !4
  %18 = getelementptr inbounds nuw %struct.lean_object, ptr %17, i32 0, i32 0
  %19 = load i32, ptr %18, align 4, !tbaa !11
  %20 = icmp ne i32 %19, 0
  br i1 %20, label %21, label %23

21:                                               ; preds = %16
  %22 = load ptr, ptr %2, align 8, !tbaa !4
  call void @lean_dec_ref_cold(ptr noundef %22)
  br label %23

23:                                               ; preds = %21, %16
  br label %24

24:                                               ; preds = %23, %11
  ret void
}

; Function Attrs: alwaysinline nounwind uwtable
define internal zeroext i1 @lean_is_scalar(ptr noundef %0) #0 {
  %2 = alloca ptr, align 8
  store ptr %0, ptr %2, align 8, !tbaa !4
  %3 = load ptr, ptr %2, align 8, !tbaa !4
  %4 = ptrtoint ptr %3 to i64
  %5 = and i64 %4, 1
  %6 = icmp eq i64 %5, 1
  ret i1 %6
}

; Function Attrs: inlinehint nounwind uwtable
define internal ptr @lean_box(i64 noundef %0) #4 {
  %2 = alloca i64, align 8
  store i64 %0, ptr %2, align 8, !tbaa !15
  %3 = load i64, ptr %2, align 8, !tbaa !15
  %4 = shl i64 %3, 1
  %5 = or i64 %4, 1
  %6 = inttoptr i64 %5 to ptr
  ret ptr %6
}

; Function Attrs: alwaysinline nounwind uwtable
define internal void @lean_dec(ptr noundef %0) #0 {
  %2 = alloca ptr, align 8
  store ptr %0, ptr %2, align 8, !tbaa !4
  %3 = load ptr, ptr %2, align 8, !tbaa !4
  %4 = call zeroext i1 @lean_is_scalar(ptr noundef %3)
  br i1 %4, label %7, label %5

5:                                                ; preds = %1
  %6 = load ptr, ptr %2, align 8, !tbaa !4
  call void @lean_dec_ref(ptr noundef %6)
  br label %7

7:                                                ; preds = %5, %1
  ret void
}

; Function Attrs: nounwind uwtable
define ptr @l_Lean_Elab_Tactic_BVDecide_Frontend_SatAtBVLogical_of___lambda__5(ptr noundef %0, ptr noundef %1, ptr noundef %2, ptr noundef %3, ptr noundef %4, ptr noundef %5, ptr noundef %6, ptr noundef %7, ptr noundef %8, ptr noundef %9, ptr noundef %10) #1 {
  %12 = alloca ptr, align 8
  %13 = alloca ptr, align 8
  %14 = alloca ptr, align 8
  %15 = alloca ptr, align 8
  %16 = alloca ptr, align 8
  %17 = alloca ptr, align 8
  %18 = alloca ptr, align 8
  %19 = alloca ptr, align 8
  %20 = alloca ptr, align 8
  %21 = alloca ptr, align 8
  %22 = alloca ptr, align 8
  %23 = alloca ptr, align 8
  %24 = alloca ptr, align 8
  %25 = alloca ptr, align 8
  %26 = alloca ptr, align 8
  %27 = alloca i8, align 1
  %28 = alloca ptr, align 8
  %29 = alloca ptr, align 8
  %30 = alloca i32, align 4
  %31 = alloca ptr, align 8
  %32 = alloca ptr, align 8
  store ptr %0, ptr %13, align 8, !tbaa !4
  store ptr %1, ptr %14, align 8, !tbaa !4
  store ptr %2, ptr %15, align 8, !tbaa !4
  store ptr %3, ptr %16, align 8, !tbaa !4
  store ptr %4, ptr %17, align 8, !tbaa !4
  store ptr %5, ptr %18, align 8, !tbaa !4
  store ptr %6, ptr %19, align 8, !tbaa !4
  store ptr %7, ptr %20, align 8, !tbaa !4
  store ptr %8, ptr %21, align 8, !tbaa !4
  store ptr %9, ptr %22, align 8, !tbaa !4
  store ptr %10, ptr %23, align 8, !tbaa !4
  br label %33

33:                                               ; preds = %11
  call void @llvm.lifetime.start.p0(i64 8, ptr %24) #7
  call void @llvm.lifetime.start.p0(i64 8, ptr %25) #7
  call void @llvm.lifetime.start.p0(i64 8, ptr %26) #7
  call void @llvm.lifetime.start.p0(i64 1, ptr %27) #7
  %34 = load ptr, ptr @l_Lean_Elab_Tactic_BVDecide_Frontend_SatAtBVLogical_of___lambda__4___closed__1, align 8, !tbaa !4
  store ptr %34, ptr %24, align 8, !tbaa !4
  %35 = load ptr, ptr %14, align 8, !tbaa !4
  %36 = call ptr @l_Lean_Expr_cleanupAnnotations(ptr noundef %35)
  store ptr %36, ptr %25, align 8, !tbaa !4
  %37 = load ptr, ptr @l_Lean_Elab_Tactic_BVDecide_Frontend_SatAtBVLogical_of___lambda__5___closed__1, align 8, !tbaa !4
  store ptr %37, ptr %26, align 8, !tbaa !4
  %38 = load ptr, ptr %25, align 8, !tbaa !4
  %39 = load ptr, ptr %26, align 8, !tbaa !4
  %40 = call zeroext i8 @l_Lean_Expr_isConstOf(ptr noundef %38, ptr noundef %39)
  store i8 %40, ptr %27, align 1, !tbaa !8
  %41 = load ptr, ptr %25, align 8, !tbaa !4
  call void @lean_dec(ptr noundef %41)
  %42 = load i8, ptr %27, align 1, !tbaa !8
  %43 = zext i8 %42 to i32
  %44 = icmp eq i32 %43, 0
  br i1 %44, label %45, label %61

45:                                               ; preds = %33
  call void @llvm.lifetime.start.p0(i64 8, ptr %28) #7
  call void @llvm.lifetime.start.p0(i64 8, ptr %29) #7
  %46 = load ptr, ptr %16, align 8, !tbaa !4
  call void @lean_dec(ptr noundef %46)
  %47 = load ptr, ptr %15, align 8, !tbaa !4
  call void @lean_dec(ptr noundef %47)
  %48 = load ptr, ptr %13, align 8, !tbaa !4
  call void @lean_dec(ptr noundef %48)
  %49 = call ptr @lean_box(i64 noundef 0)
  store ptr %49, ptr %28, align 8, !tbaa !4
  %50 = load ptr, ptr %24, align 8, !tbaa !4
  %51 = load ptr, ptr %28, align 8, !tbaa !4
  %52 = load ptr, ptr %17, align 8, !tbaa !4
  %53 = load ptr, ptr %18, align 8, !tbaa !4
  %54 = load ptr, ptr %19, align 8, !tbaa !4
  %55 = load ptr, ptr %20, align 8, !tbaa !4
  %56 = load ptr, ptr %21, align 8, !tbaa !4
  %57 = load ptr, ptr %22, align 8, !tbaa !4
  %58 = load ptr, ptr %23, align 8, !tbaa !4
  %59 = call ptr @lean_apply_8(ptr noundef %50, ptr noundef %51, ptr noundef %52, ptr noundef %53, ptr noundef %54, ptr noundef %55, ptr noundef %56, ptr noundef %57, ptr noundef %58)
  store ptr %59, ptr %29, align 8, !tbaa !4
  %60 = load ptr, ptr %29, align 8, !tbaa !4
  store ptr %60, ptr %12, align 8
  store i32 1, ptr %30, align 4
  call void @llvm.lifetime.end.p0(i64 8, ptr %29) #7
  call void @llvm.lifetime.end.p0(i64 8, ptr %28) #7
  br label %76

61:                                               ; preds = %33
  call void @llvm.lifetime.start.p0(i64 8, ptr %31) #7
  call void @llvm.lifetime.start.p0(i64 8, ptr %32) #7
  %62 = call ptr @lean_box(i64 noundef 0)
  store ptr %62, ptr %31, align 8, !tbaa !4
  %63 = load ptr, ptr %16, align 8, !tbaa !4
  %64 = load ptr, ptr %15, align 8, !tbaa !4
  %65 = load ptr, ptr %13, align 8, !tbaa !4
  %66 = load ptr, ptr %31, align 8, !tbaa !4
  %67 = load ptr, ptr %17, align 8, !tbaa !4
  %68 = load ptr, ptr %18, align 8, !tbaa !4
  %69 = load ptr, ptr %19, align 8, !tbaa !4
  %70 = load ptr, ptr %20, align 8, !tbaa !4
  %71 = load ptr, ptr %21, align 8, !tbaa !4
  %72 = load ptr, ptr %22, align 8, !tbaa !4
  %73 = load ptr, ptr %23, align 8, !tbaa !4
  %74 = call ptr @l_Lean_Elab_Tactic_BVDecide_Frontend_SatAtBVLogical_of___lambda__4(ptr noundef %63, ptr noundef %64, ptr noundef %65, ptr noundef %66, ptr noundef %67, ptr noundef %68, ptr noundef %69, ptr noundef %70, ptr noundef %71, ptr noundef %72, ptr noundef %73)
  store ptr %74, ptr %32, align 8, !tbaa !4
  %75 = load ptr, ptr %32, align 8, !tbaa !4
  store ptr %75, ptr %12, align 8
  store i32 1, ptr %30, align 4
  call void @llvm.lifetime.end.p0(i64 8, ptr %32) #7
  call void @llvm.lifetime.end.p0(i64 8, ptr %31) #7
  br label %76

76:                                               ; preds = %61, %45
  call void @llvm.lifetime.end.p0(i64 1, ptr %27) #7
  call void @llvm.lifetime.end.p0(i64 8, ptr %26) #7
  call void @llvm.lifetime.end.p0(i64 8, ptr %25) #7
  call void @llvm.lifetime.end.p0(i64 8, ptr %24) #7
  %77 = load ptr, ptr %12, align 8
  ret ptr %77
}