; Function Attrs: nounwind uwtable
define ptr @l_Lean_Elab_Tactic_BVDecide_Frontend_SatAtBVLogical_of___lambda__5(ptr noundef %0, ptr noundef %1, ptr noundef %2, ptr noundef %3, ptr noundef %4, ptr noundef %5, ptr noundef %6, ptr noundef %7, ptr noundef %8, ptr noundef %9, ptr noundef %10) local_unnamed_addr #0 {
  %12 = load ptr, ptr @l_Lean_Elab_Tactic_BVDecide_Frontend_SatAtBVLogical_of___lambda__4___closed__1, align 8, !tbaa !9
  %13 = tail call ptr @l_Lean_Expr_cleanupAnnotations(ptr noundef %1) #3
  %14 = load ptr, ptr @l_Lean_Elab_Tactic_BVDecide_Frontend_SatAtBVLogical_of___lambda__5___closed__1, align 8, !tbaa !9
  %15 = tail call zeroext i8 @l_Lean_Expr_isConstOf(ptr noundef %13, ptr noundef %14) #3
  %16 = ptrtoint ptr %13 to i64
  %17 = and i64 %16, 1
  %.not = icmp eq i64 %17, 0
  br i1 %.not, label %18, label %lean_dec.exit32

18:                                               ; preds = %11
  %19 = load i32, ptr %13, align 4, !tbaa !4
  %20 = icmp sgt i32 %19, 1
  br i1 %20, label %21, label %23, !prof !11

21:                                               ; preds = %18
  %22 = add nsw i32 %19, -1
  store i32 %22, ptr %13, align 4, !tbaa !4
  br label %lean_dec.exit32

23:                                               ; preds = %18
  %.not.i = icmp eq i32 %19, 0
  br i1 %.not.i, label %lean_dec.exit32, label %24

24:                                               ; preds = %23
  tail call void @lean_dec_ref_cold(ptr noundef nonnull %13) #3
  br label %lean_dec.exit32

lean_dec.exit32:                                  ; preds = %24, %23, %21, %11
  %25 = icmp eq i8 %15, 0
  br i1 %25, label %26, label %55

26:                                               ; preds = %lean_dec.exit32
  %27 = ptrtoint ptr %3 to i64
  %28 = and i64 %27, 1
  %.not39 = icmp eq i64 %28, 0
  br i1 %.not39, label %29, label %lean_dec.exit31

29:                                               ; preds = %26
  %30 = load i32, ptr %3, align 4, !tbaa !4
  %31 = icmp sgt i32 %30, 1
  br i1 %31, label %32, label %34, !prof !11

32:                                               ; preds = %29
  %33 = add nsw i32 %30, -1
  store i32 %33, ptr %3, align 4, !tbaa !4
  br label %lean_dec.exit31

34:                                               ; preds = %29
  %.not.i33 = icmp eq i32 %30, 0
  br i1 %.not.i33, label %lean_dec.exit31, label %35

35:                                               ; preds = %34
  tail call void @lean_dec_ref_cold(ptr noundef nonnull %3) #3
  br label %lean_dec.exit31

lean_dec.exit31:                                  ; preds = %35, %34, %32, %26
  %36 = ptrtoint ptr %2 to i64
  %37 = and i64 %36, 1
  %.not40 = icmp eq i64 %37, 0
  br i1 %.not40, label %38, label %lean_dec.exit30

38:                                               ; preds = %lean_dec.exit31
  %39 = load i32, ptr %2, align 4, !tbaa !4
  %40 = icmp sgt i32 %39, 1
  br i1 %40, label %41, label %43, !prof !11

41:                                               ; preds = %38
  %42 = add nsw i32 %39, -1
  store i32 %42, ptr %2, align 4, !tbaa !4
  br label %lean_dec.exit30

43:                                               ; preds = %38
  %.not.i35 = icmp eq i32 %39, 0
  br i1 %.not.i35, label %lean_dec.exit30, label %44

44:                                               ; preds = %43
  tail call void @lean_dec_ref_cold(ptr noundef nonnull %2) #3
  br label %lean_dec.exit30

lean_dec.exit30:                                  ; preds = %44, %43, %41, %lean_dec.exit31
  %45 = ptrtoint ptr %0 to i64
  %46 = and i64 %45, 1
  %.not41 = icmp eq i64 %46, 0
  br i1 %.not41, label %47, label %lean_dec.exit

47:                                               ; preds = %lean_dec.exit30
  %48 = load i32, ptr %0, align 4, !tbaa !4
  %49 = icmp sgt i32 %48, 1
  br i1 %49, label %50, label %52, !prof !11

50:                                               ; preds = %47
  %51 = add nsw i32 %48, -1
  store i32 %51, ptr %0, align 4, !tbaa !4
  br label %lean_dec.exit

52:                                               ; preds = %47
  %.not.i37 = icmp eq i32 %48, 0
  br i1 %.not.i37, label %lean_dec.exit, label %53

53:                                               ; preds = %52
  tail call void @lean_dec_ref_cold(ptr noundef nonnull %0) #3
  br label %lean_dec.exit

lean_dec.exit:                                    ; preds = %53, %52, %50, %lean_dec.exit30
  %54 = tail call ptr @lean_apply_8(ptr noundef %12, ptr noundef nonnull inttoptr (i64 1 to ptr), ptr noundef %4, ptr noundef %5, ptr noundef %6, ptr noundef %7, ptr noundef %8, ptr noundef %9, ptr noundef %10) #3
  br label %57

55:                                               ; preds = %lean_dec.exit32
  %56 = tail call ptr @l_Lean_Elab_Tactic_BVDecide_Frontend_SatAtBVLogical_of___lambda__4(ptr noundef %3, ptr noundef %2, ptr noundef %0, ptr nonnull poison, ptr noundef %4, ptr noundef %5, ptr noundef %6, ptr noundef %7, ptr noundef %8, ptr noundef %9, ptr noundef %10)
  br label %57

57:                                               ; preds = %55, %lean_dec.exit
  %.0 = phi ptr [ %54, %lean_dec.exit ], [ %56, %55 ]
  ret ptr %.0
}